target datalayout = "e-m:e-p270:32:32-p271:32:32-p272:64:64-i64:64-i128:128-f80:128-n8:16:32:64-S128"
target triple = "x86_64-unknown-linux-gnu"

%"class.hermes::vm::PinnedHermesValue" = type { %"class.hermes::vm::HermesValue" }
%"class.hermes::vm::HermesValue" = type { i64 }
%"class.facebook::jsi::Runtime" = type { ptr }
%"class.facebook::jsi::Instrumentation" = type { ptr }
%"class.std::recursive_mutex" = type { %"class.std::__recursive_mutex_base" }
%"class.std::__recursive_mutex_base" = type { %union.pthread_mutex_t }
%union.pthread_mutex_t = type { %struct.__pthread_mutex_s }
%struct.__pthread_mutex_s = type { i32, i32, i32, i32, i32, i16, i16, %struct.__pthread_internal_list }
%struct.__pthread_internal_list = type { ptr, ptr }
%"class.facebook::jsi::Pointer" = type { ptr }
%"struct.facebook::hermes::HermesRuntimeImpl::ManagedValue" = type { %"struct.facebook::jsi::Runtime::PointerValue", %"struct.std::atomic.315", %union.anon.317 }
%"struct.facebook::jsi::Runtime::PointerValue" = type { ptr }
%"struct.std::atomic.315" = type { %"struct.std::__atomic_base.316" }
%"struct.std::__atomic_base.316" = type { i32 }
%union.anon.317 = type { %"class.hermes::vm::PinnedHermesValue" }
%"class.facebook::jsi::WithRuntimeDecorator" = type { %"class.facebook::jsi::RuntimeDecorator", ptr }
%"class.facebook::jsi::RuntimeDecorator" = type { %"class.facebook::jsi::ThreadSafeRuntime", %"class.facebook::jsi::Instrumentation", ptr }
%"class.facebook::jsi::ThreadSafeRuntime" = type { %"class.facebook::jsi::Runtime" }
%"struct.facebook::jsi::detail::WithLock" = type { %"class.facebook::hermes::(anonymous namespace)::HermesMutex" }
%"class.facebook::hermes::(anonymous namespace)::HermesMutex" = type { %"class.std::recursive_mutex" }
%"struct.facebook::jsi::WithRuntimeDecorator<facebook::jsi::detail::WithLock<facebook::hermes::HermesRuntimeImpl, facebook::hermes::(anonymous namespace)::HermesMutex>, facebook::hermes::HermesRuntimeImpl, facebook::jsi::ThreadSafeRuntime>::Around" = type { ptr }

; Function Attrs: mustprogress nounwind uwtable
define internal noundef i32 @_ZL18__gthread_active_pv() #1 {
entry:
  ret i32 1
}

; Function Attrs: mustprogress nounwind uwtable
define internal noundef i32 @_ZL22__gthread_mutex_unlockP15pthread_mutex_t(ptr noundef %__mutex) #1 {
entry:
  %retval = alloca i32, align 4
  %__mutex.addr = alloca ptr, align 8
  store ptr %__mutex, ptr %__mutex.addr, align 8
  %call = call noundef i32 @_ZL18__gthread_active_pv()
  %tobool = icmp ne i32 %call, 0
  br i1 %tobool, label %if.then, label %if.else

if.then:                                          ; preds = %entry
  %0 = load ptr, ptr %__mutex.addr, align 8
  %call1 = call i32 @pthread_mutex_unlock(ptr noundef %0) #19
  store i32 %call1, ptr %retval, align 4
  br label %return

if.else:                                          ; preds = %entry
  store i32 0, ptr %retval, align 4
  br label %return

return:                                           ; preds = %if.else, %if.then
  %1 = load i32, ptr %retval, align 4
  ret i32 %1
}

; Function Attrs: mustprogress uwtable
define internal noundef i32 @_ZL20__gthread_mutex_lockP15pthread_mutex_t(ptr noundef %__mutex) #0 {
entry:
  %retval = alloca i32, align 4
  %__mutex.addr = alloca ptr, align 8
  store ptr %__mutex, ptr %__mutex.addr, align 8
  %call = call noundef i32 @_ZL18__gthread_active_pv()
  %tobool = icmp ne i32 %call, 0
  br i1 %tobool, label %if.then, label %if.else

if.then:                                          ; preds = %entry
  %0 = load ptr, ptr %__mutex.addr, align 8
  %call1 = call i32 @pthread_mutex_lock(ptr noundef %0) #19
  store i32 %call1, ptr %retval, align 4
  br label %return

if.else:                                          ; preds = %entry
  store i32 0, ptr %retval, align 4
  br label %return

return:                                           ; preds = %if.else, %if.then
  %1 = load i32, ptr %retval, align 4
  ret i32 %1
}

; Function Attrs: mustprogress uwtable
define internal noundef i32 @_ZL32__gthread_recursive_mutex_unlockP15pthread_mutex_t(ptr noundef %__mutex) #0 {
entry:
  %__mutex.addr = alloca ptr, align 8
  store ptr %__mutex, ptr %__mutex.addr, align 8
  %0 = load ptr, ptr %__mutex.addr, align 8
  %call = call noundef i32 @_ZL22__gthread_mutex_unlockP15pthread_mutex_t(ptr noundef %0)
  ret i32 %call
}

; Function Attrs: mustprogress uwtable
define internal noundef i32 @_ZL30__gthread_recursive_mutex_lockP15pthread_mutex_t(ptr noundef %__mutex) #0 {
entry:
  %__mutex.addr = alloca ptr, align 8
  store ptr %__mutex, ptr %__mutex.addr, align 8
  %0 = load ptr, ptr %__mutex.addr, align 8
  %call = call noundef i32 @_ZL20__gthread_mutex_lockP15pthread_mutex_t(ptr noundef %0)
  ret i32 %call
}

; Function Attrs: mustprogress uwtable
define linkonce_odr void @_ZNSt15recursive_mutex6unlockEv(ptr noundef nonnull align 8 dereferenceable(40) %this) #0 comdat align 2 {
entry:
  %this.addr = alloca ptr, align 8
  store ptr %this, ptr %this.addr, align 8
  %this1 = load ptr, ptr %this.addr, align 8
  %_M_mutex = getelementptr inbounds %"class.std::__recursive_mutex_base", ptr %this1, i32 0, i32 0
  %call = call noundef i32 @_ZL32__gthread_recursive_mutex_unlockP15pthread_mutex_t(ptr noundef %_M_mutex)
  ret void
}

; Function Attrs: mustprogress nounwind uwtable
define linkonce_odr hidden noundef ptr @_ZNK6hermes2vm11HermesValue10getPointerEv(ptr noundef nonnull align 8 dereferenceable(8) %this) #1 comdat align 2 {
entry:
  %this.addr = alloca ptr, align 8
  store ptr %this, ptr %this.addr, align 8
  %this1 = load ptr, ptr %this.addr, align 8
  %raw_ = getelementptr inbounds %"class.hermes::vm::HermesValue", ptr %this1, i32 0, i32 0
  %0 = load i64, ptr %raw_, align 8
  %and = and i64 %0, 281474976710655
  %1 = inttoptr i64 %and to ptr
  ret ptr %1
}

; Function Attrs: mustprogress nounwind uwtable
define linkonce_odr hidden noundef nonnull align 8 dereferenceable(8) ptr @_ZNK8facebook6hermes17HermesRuntimeImpl12ManagedValueIN6hermes2vm17PinnedHermesValueEE5valueEv(ptr noundef nonnull align 8 dereferenceable(24) %this) #1 comdat align 2 {
entry:
  %this.addr = alloca ptr, align 8
  store ptr %this, ptr %this.addr, align 8
  %this1 = load ptr, ptr %this.addr, align 8
  %0 = getelementptr inbounds %"struct.facebook::hermes::HermesRuntimeImpl::ManagedValue", ptr %this1, i32 0, i32 2
  ret ptr %0
}

; Function Attrs: mustprogress nounwind uwtable
define linkonce_odr noundef ptr @_ZN8facebook3jsi7Runtime15getPointerValueERKNS0_7PointerE(ptr noundef nonnull align 8 dereferenceable(8) %pointer) #1 comdat align 2 {
entry:
  %pointer.addr = alloca ptr, align 8
  store ptr %pointer, ptr %pointer.addr, align 8
  %0 = load ptr, ptr %pointer.addr, align 8
  %ptr_ = getelementptr inbounds %"class.facebook::jsi::Pointer", ptr %0, i32 0, i32 0
  %1 = load ptr, ptr %ptr_, align 8
  ret ptr %1
}

; Function Attrs: mustprogress uwtable
define linkonce_odr void @_ZNSt15recursive_mutex4lockEv(ptr noundef nonnull align 8 dereferenceable(40) %this) #0 comdat align 2 {
entry:
  %this.addr = alloca ptr, align 8
  %__e = alloca i32, align 4
  store ptr %this, ptr %this.addr, align 8
  %this1 = load ptr, ptr %this.addr, align 8
  %_M_mutex = getelementptr inbounds %"class.std::__recursive_mutex_base", ptr %this1, i32 0, i32 0
  %call = call noundef i32 @_ZL30__gthread_recursive_mutex_lockP15pthread_mutex_t(ptr noundef %_M_mutex)
  store i32 %call, ptr %__e, align 4
  %0 = load i32, ptr %__e, align 4
  %tobool = icmp ne i32 %0, 0
  br i1 %tobool, label %if.then, label %if.end

if.then:                                          ; preds = %entry
  %1 = load i32, ptr %__e, align 4
  call void @_ZSt20__throw_system_errori(i32 noundef %1) #21
  unreachable

if.end:                                           ; preds = %entry
  ret void
}

; Function Attrs: mustprogress uwtable
define internal void @_ZN8facebook3jsi6detail8WithLockINS_6hermes17HermesRuntimeImplENS3_12_GLOBAL__N_111HermesMutexEE5afterEv(ptr noundef nonnull align 8 dereferenceable(40) %this) #0 align 2 {
entry:
  %this.addr = alloca ptr, align 8
  store ptr %this, ptr %this.addr, align 8
  %this1 = load ptr, ptr %this.addr, align 8
  %lock = getelementptr inbounds %"struct.facebook::jsi::detail::WithLock", ptr %this1, i32 0, i32 0
  call void @_ZNSt15recursive_mutex6unlockEv(ptr noundef nonnull align 8 dereferenceable(40) %lock)
  ret void
}

; Function Attrs: mustprogress nounwind uwtable
define linkonce_odr hidden noundef ptr @_ZNK6hermes2vm11HermesValue9getStringEv(ptr noundef nonnull align 8 dereferenceable(8) %this) #1 comdat align 2 {
entry:
  %this.addr = alloca ptr, align 8
  store ptr %this, ptr %this.addr, align 8
  %this1 = load ptr, ptr %this.addr, align 8
  %call = call noundef ptr @_ZNK6hermes2vm11HermesValue10getPointerEv(ptr noundef nonnull align 8 dereferenceable(8) %this1)
  ret ptr %call
}

; Function Attrs: mustprogress uwtable
define linkonce_odr hidden noundef nonnull align 8 dereferenceable(8) ptr @_ZN8facebook6hermes17HermesRuntimeImpl3phvERKNS_3jsi7PointerE(ptr noundef nonnull align 8 dereferenceable(8) %pointer) #0 comdat align 2 {
entry:
  %pointer.addr = alloca ptr, align 8
  store ptr %pointer, ptr %pointer.addr, align 8
  %0 = load ptr, ptr %pointer.addr, align 8
  %call = call noundef ptr @_ZN8facebook3jsi7Runtime15getPointerValueERKNS0_7PointerE(ptr noundef nonnull align 8 dereferenceable(8) %0)
  %call1 = call noundef nonnull align 8 dereferenceable(8) ptr @_ZNK8facebook6hermes17HermesRuntimeImpl12ManagedValueIN6hermes2vm17PinnedHermesValueEE5valueEv(ptr noundef nonnull align 8 dereferenceable(24) %call)
  ret ptr %call1
}

; Function Attrs: mustprogress uwtable
define internal void @_ZN8facebook3jsi6detail8WithLockINS_6hermes17HermesRuntimeImplENS3_12_GLOBAL__N_111HermesMutexEE6beforeEv(ptr noundef nonnull align 8 dereferenceable(40) %this) #0 align 2 {
entry:
  %this.addr = alloca ptr, align 8
  store ptr %this, ptr %this.addr, align 8
  %this1 = load ptr, ptr %this.addr, align 8
  %lock = getelementptr inbounds %"struct.facebook::jsi::detail::WithLock", ptr %this1, i32 0, i32 0
  call void @_ZNSt15recursive_mutex4lockEv(ptr noundef nonnull align 8 dereferenceable(40) %lock)
  ret void
}

; Function Attrs: noreturn nounwind uwtable
define linkonce_odr hidden void @__clang_call_terminate(ptr noundef %0) #13 comdat {
  %2 = call ptr @__cxa_begin_catch(ptr %0) #19
  call void @_ZSt9terminatev() #23
  unreachable
}

; Function Attrs: mustprogress uwtable
define internal void @_ZN8facebook3jsi6detail11AfterCallerINS1_8WithLockINS_6hermes17HermesRuntimeImplENS4_12_GLOBAL__N_111HermesMutexEEEvE5afterERS8_(ptr noundef nonnull align 8 dereferenceable(40) %t) #0 align 2 {
entry:
  %t.addr = alloca ptr, align 8
  store ptr %t, ptr %t.addr, align 8
  %0 = load ptr, ptr %t.addr, align 8
  call void @_ZN8facebook3jsi6detail8WithLockINS_6hermes17HermesRuntimeImplENS3_12_GLOBAL__N_111HermesMutexEE5afterEv(ptr noundef nonnull align 8 dereferenceable(40) %0)
  ret void
}

; Function Attrs: mustprogress uwtable
define hidden noundef zeroext i1 @_ZNK8facebook6hermes17HermesRuntimeImpl12strictEqualsERKNS_3jsi6StringES5_(ptr noundef nonnull align 8 dereferenceable(184) %this, ptr noundef nonnull align 8 dereferenceable(8) %a, ptr noundef nonnull align 8 dereferenceable(8) %b) unnamed_addr #0 align 2 {
entry:
  %this.addr = alloca ptr, align 8
  %a.addr = alloca ptr, align 8
  %b.addr = alloca ptr, align 8
  store ptr %this, ptr %this.addr, align 8
  store ptr %a, ptr %a.addr, align 8
  store ptr %b, ptr %b.addr, align 8
  %0 = load ptr, ptr %a.addr, align 8
  %call = call noundef nonnull align 8 dereferenceable(8) ptr @_ZN8facebook6hermes17HermesRuntimeImpl3phvERKNS_3jsi7PointerE(ptr noundef nonnull align 8 dereferenceable(8) %0)
  %call2 = call noundef ptr @_ZNK6hermes2vm11HermesValue9getStringEv(ptr noundef nonnull align 8 dereferenceable(8) %call)
  %1 = load ptr, ptr %b.addr, align 8
  %call3 = call noundef nonnull align 8 dereferenceable(8) ptr @_ZN8facebook6hermes17HermesRuntimeImpl3phvERKNS_3jsi7PointerE(ptr noundef nonnull align 8 dereferenceable(8) %1)
  %call4 = call noundef ptr @_ZNK6hermes2vm11HermesValue9getStringEv(ptr noundef nonnull align 8 dereferenceable(8) %call3)
  %call5 = call noundef zeroext i1 @_ZNK6hermes2vm15StringPrimitive6equalsEPKS1_(ptr noundef nonnull align 4 dereferenceable(8) %call2, ptr noundef %call4)
  ret i1 %call5
}

; Function Attrs: mustprogress uwtable
define internal void @_ZN8facebook3jsi6detail12BeforeCallerINS1_8WithLockINS_6hermes17HermesRuntimeImplENS4_12_GLOBAL__N_111HermesMutexEEEvE6beforeERS8_(ptr noundef nonnull align 8 dereferenceable(40) %t) #0 align 2 {
entry:
  %t.addr = alloca ptr, align 8
  store ptr %t, ptr %t.addr, align 8
  %0 = load ptr, ptr %t.addr, align 8
  call void @_ZN8facebook3jsi6detail8WithLockINS_6hermes17HermesRuntimeImplENS3_12_GLOBAL__N_111HermesMutexEE6beforeEv(ptr noundef nonnull align 8 dereferenceable(40) %0)
  ret void
}

; Function Attrs: mustprogress nounwind uwtable
define internal void @_ZN8facebook3jsi20WithRuntimeDecoratorINS0_6detail8WithLockINS_6hermes17HermesRuntimeImplENS4_12_GLOBAL__N_111HermesMutexEEES5_NS0_17ThreadSafeRuntimeEE6AroundD2Ev(ptr noundef nonnull align 8 dereferenceable(8) %this) unnamed_addr #1 align 2 personality ptr @__gxx_personality_v0 {
entry:
  %this.addr = alloca ptr, align 8
  store ptr %this, ptr %this.addr, align 8
  %this1 = load ptr, ptr %this.addr, align 8
  %with_ = getelementptr inbounds %"struct.facebook::jsi::WithRuntimeDecorator<facebook::jsi::detail::WithLock<facebook::hermes::HermesRuntimeImpl, facebook::hermes::(anonymous namespace)::HermesMutex>, facebook::hermes::HermesRuntimeImpl, facebook::jsi::ThreadSafeRuntime>::Around", ptr %this1, i32 0, i32 0
  %0 = load ptr, ptr %with_, align 8
  invoke void @_ZN8facebook3jsi6detail11AfterCallerINS1_8WithLockINS_6hermes17HermesRuntimeImplENS4_12_GLOBAL__N_111HermesMutexEEEvE5afterERS8_(ptr noundef nonnull align 8 dereferenceable(40) %0)
          to label %invoke.cont unwind label %terminate.lpad

invoke.cont:                                      ; preds = %entry
  ret void

terminate.lpad:                                   ; preds = %entry
  %1 = landingpad { ptr, i32 }
          catch ptr null
  %2 = extractvalue { ptr, i32 } %1, 0
  call void @__clang_call_terminate(ptr %2) #23
  unreachable
}

; Function Attrs: mustprogress uwtable
define linkonce_odr hidden noundef zeroext i1 @_ZNK8facebook3jsi16RuntimeDecoratorINS_6hermes17HermesRuntimeImplENS0_17ThreadSafeRuntimeEE12strictEqualsERKNS0_6StringES8_(ptr noundef nonnull align 8 dereferenceable(24) %this, ptr noundef nonnull align 8 dereferenceable(8) %a, ptr noundef nonnull align 8 dereferenceable(8) %b) unnamed_addr #0 comdat align 2 {
entry:
  %this.addr = alloca ptr, align 8
  %a.addr = alloca ptr, align 8
  %b.addr = alloca ptr, align 8
  store ptr %this, ptr %this.addr, align 8
  store ptr %a, ptr %a.addr, align 8
  store ptr %b, ptr %b.addr, align 8
  %this1 = load ptr, ptr %this.addr, align 8
  %plain_ = getelementptr inbounds %"class.facebook::jsi::RuntimeDecorator", ptr %this1, i32 0, i32 2
  %0 = load ptr, ptr %plain_, align 8
  %1 = load ptr, ptr %a.addr, align 8
  %2 = load ptr, ptr %b.addr, align 8
  %call = call noundef zeroext i1 @_ZNK8facebook6hermes17HermesRuntimeImpl12strictEqualsERKNS_3jsi6StringES5_(ptr noundef nonnull align 8 dereferenceable(184) %0, ptr noundef nonnull align 8 dereferenceable(8) %1, ptr noundef nonnull align 8 dereferenceable(8) %2)
  ret i1 %call
}

; Function Attrs: mustprogress uwtable
define internal void @_ZN8facebook3jsi20WithRuntimeDecoratorINS0_6detail8WithLockINS_6hermes17HermesRuntimeImplENS4_12_GLOBAL__N_111HermesMutexEEES5_NS0_17ThreadSafeRuntimeEE6AroundC2ERS8_(ptr noundef nonnull align 8 dereferenceable(8) %this, ptr noundef nonnull align 8 dereferenceable(40) %with) unnamed_addr #0 align 2 {
entry:
  %this.addr = alloca ptr, align 8
  %with.addr = alloca ptr, align 8
  store ptr %this, ptr %this.addr, align 8
  store ptr %with, ptr %with.addr, align 8
  %this1 = load ptr, ptr %this.addr, align 8
  %with_ = getelementptr inbounds %"struct.facebook::jsi::WithRuntimeDecorator<facebook::jsi::detail::WithLock<facebook::hermes::HermesRuntimeImpl, facebook::hermes::(anonymous namespace)::HermesMutex>, facebook::hermes::HermesRuntimeImpl, facebook::jsi::ThreadSafeRuntime>::Around", ptr %this1, i32 0, i32 0
  %0 = load ptr, ptr %with.addr, align 8
  store ptr %0, ptr %with_, align 8
  %with_2 = getelementptr inbounds %"struct.facebook::jsi::WithRuntimeDecorator<facebook::jsi::detail::WithLock<facebook::hermes::HermesRuntimeImpl, facebook::hermes::(anonymous namespace)::HermesMutex>, facebook::hermes::HermesRuntimeImpl, facebook::jsi::ThreadSafeRuntime>::Around", ptr %this1, i32 0, i32 0
  %1 = load ptr, ptr %with_2, align 8
  call void @_ZN8facebook3jsi6detail12BeforeCallerINS1_8WithLockINS_6hermes17HermesRuntimeImplENS4_12_GLOBAL__N_111HermesMutexEEEvE6beforeERS8_(ptr noundef nonnull align 8 dereferenceable(40) %1)
  ret void
}

; Function Attrs: mustprogress uwtable
define internal noundef zeroext i1 @_ZNK8facebook3jsi20WithRuntimeDecoratorINS0_6detail8WithLockINS_6hermes17HermesRuntimeImplENS4_12_GLOBAL__N_111HermesMutexEEES5_NS0_17ThreadSafeRuntimeEE12strictEqualsERKNS0_6StringESD_(ptr noundef nonnull align 8 dereferenceable(32) %this, ptr noundef nonnull align 8 dereferenceable(8) %a, ptr noundef nonnull align 8 dereferenceable(8) %b) unnamed_addr #0 align 2 personality ptr @__gxx_personality_v0 {
entry:
  %this.addr = alloca ptr, align 8
  %a.addr = alloca ptr, align 8
  %b.addr = alloca ptr, align 8
  %around = alloca %"struct.facebook::jsi::WithRuntimeDecorator<facebook::jsi::detail::WithLock<facebook::hermes::HermesRuntimeImpl, facebook::hermes::(anonymous namespace)::HermesMutex>, facebook::hermes::HermesRuntimeImpl, facebook::jsi::ThreadSafeRuntime>::Around", align 8
  %exn.slot = alloca ptr, align 8
  %ehselector.slot = alloca i32, align 4
  store ptr %this, ptr %this.addr, align 8
  store ptr %a, ptr %a.addr, align 8
  store ptr %b, ptr %b.addr, align 8
  %this1 = load ptr, ptr %this.addr, align 8
  %with_ = getelementptr inbounds %"class.facebook::jsi::WithRuntimeDecorator", ptr %this1, i32 0, i32 1
  %0 = load ptr, ptr %with_, align 8
  call void @_ZN8facebook3jsi20WithRuntimeDecoratorINS0_6detail8WithLockINS_6hermes17HermesRuntimeImplENS4_12_GLOBAL__N_111HermesMutexEEES5_NS0_17ThreadSafeRuntimeEE6AroundC2ERS8_(ptr noundef nonnull align 8 dereferenceable(8) %around, ptr noundef nonnull align 8 dereferenceable(40) %0)
  %1 = load ptr, ptr %a.addr, align 8
  %2 = load ptr, ptr %b.addr, align 8
  %call = invoke noundef zeroext i1 @_ZNK8facebook3jsi16RuntimeDecoratorINS_6hermes17HermesRuntimeImplENS0_17ThreadSafeRuntimeEE12strictEqualsERKNS0_6StringES8_(ptr noundef nonnull align 8 dereferenceable(24) %this1, ptr noundef nonnull align 8 dereferenceable(8) %1, ptr noundef nonnull align 8 dereferenceable(8) %2)
          to label %invoke.cont unwind label %lpad

invoke.cont:                                      ; preds = %entry
  call void @_ZN8facebook3jsi20WithRuntimeDecoratorINS0_6detail8WithLockINS_6hermes17HermesRuntimeImplENS4_12_GLOBAL__N_111HermesMutexEEES5_NS0_17ThreadSafeRuntimeEE6AroundD2Ev(ptr noundef nonnull align 8 dereferenceable(8) %around) #19
  ret i1 %call

lpad:                                             ; preds = %entry
  %3 = landingpad { ptr, i32 }
          cleanup
  %4 = extractvalue { ptr, i32 } %3, 0
  store ptr %4, ptr %exn.slot, align 8
  %5 = extractvalue { ptr, i32 } %3, 1
  store i32 %5, ptr %ehselector.slot, align 4
  call void @_ZN8facebook3jsi20WithRuntimeDecoratorINS0_6detail8WithLockINS_6hermes17HermesRuntimeImplENS4_12_GLOBAL__N_111HermesMutexEEES5_NS0_17ThreadSafeRuntimeEE6AroundD2Ev(ptr noundef nonnull align 8 dereferenceable(8) %around) #19
  br label %eh.resume

eh.resume:                                        ; preds = %lpad
  %exn = load ptr, ptr %exn.slot, align 8
  %sel = load i32, ptr %ehselector.slot, align 4
  %lpad.val = insertvalue { ptr, i32 } poison, ptr %exn, 0
  %lpad.val2 = insertvalue { ptr, i32 } %lpad.val, i32 %sel, 1
  resume { ptr, i32 } %lpad.val2
}